target datalayout = "e-m:e-p270:32:32-p271:32:32-p272:64:64-i64:64-i128:128-f80:128-n8:16:32:64-S128"
target triple = "x86_64-pc-linux-gnu"

@_ZN23java_lang_reflect_Field21_trusted_final_offsetE = hidden global i32 0, align 4

; Function Attrs: mustprogress nounwind uwtable
define linkonce_odr hidden noundef i64 @_Z13cast_from_oopIlET_P7oopDesc(ptr noundef %0) #1 comdat {
  %2 = alloca ptr, align 8
  store ptr %0, ptr %2, align 8
  %3 = load ptr, ptr %2, align 8
  %4 = ptrtoint ptr %3 to i64
  ret i64 %4
}

; Function Attrs: mustprogress nounwind uwtable
define linkonce_odr hidden noundef ptr @_ZNK7oopDesc6as_oopEv(ptr noundef nonnull align 8 dereferenceable(16) %0) #1 comdat align 2 {
  %2 = alloca ptr, align 8
  store ptr %0, ptr %2, align 8
  %3 = load ptr, ptr %2, align 8
  ret ptr %3
}

; Function Attrs: mustprogress nounwind uwtable
define linkonce_odr hidden noundef ptr @_ZNK7oopDesc10field_addrIhEEPT_i(ptr noundef nonnull align 8 dereferenceable(16) %0, i32 noundef %1) #1 comdat align 2 {
  %3 = alloca ptr, align 8
  %4 = alloca i32, align 4
  store ptr %0, ptr %3, align 8
  store i32 %1, ptr %4, align 4
  %5 = load ptr, ptr %3, align 8
  %6 = call noundef ptr @_ZNK7oopDesc6as_oopEv(ptr noundef nonnull align 8 dereferenceable(16) %5)
  %7 = call noundef i64 @_Z13cast_from_oopIlET_P7oopDesc(ptr noundef %6)
  %8 = load i32, ptr %4, align 4
  %9 = sext i32 %8 to i64
  %10 = add nsw i64 %7, %9
  %11 = inttoptr i64 %10 to ptr
  ret ptr %11
}

; Function Attrs: mustprogress nounwind uwtable
define linkonce_odr hidden void @_ZN7oopDesc14bool_field_putEih(ptr noundef nonnull align 8 dereferenceable(16) %0, i32 noundef %1, i8 noundef zeroext %2) #1 comdat align 2 {
  %4 = alloca ptr, align 8
  %5 = alloca i32, align 4
  %6 = alloca i8, align 1
  store ptr %0, ptr %4, align 8
  store i32 %1, ptr %5, align 4
  store i8 %2, ptr %6, align 1
  %7 = load ptr, ptr %4, align 8
  %8 = load i8, ptr %6, align 1
  %9 = zext i8 %8 to i32
  %10 = and i32 %9, 1
  %11 = trunc i32 %10 to i8
  %12 = load i32, ptr %5, align 4
  %13 = call noundef ptr @_ZNK7oopDesc10field_addrIhEEPT_i(ptr noundef nonnull align 8 dereferenceable(16) %7, i32 noundef %12)
  store i8 %11, ptr %13, align 1
  ret void
}

; Function Attrs: mustprogress nounwind uwtable
define hidden void @_ZN23java_lang_reflect_Field17set_trusted_finalEP7oopDesc(ptr noundef %0) #1 align 2 {
  %2 = alloca ptr, align 8
  store ptr %0, ptr %2, align 8
  %3 = load ptr, ptr %2, align 8
  %4 = load i32, ptr @_ZN23java_lang_reflect_Field21_trusted_final_offsetE, align 4
  call void @_ZN7oopDesc14bool_field_putEih(ptr noundef nonnull align 8 dereferenceable(16) %3, i32 noundef %4, i8 noundef zeroext 1)
  ret void
}