; Function Attrs: mustprogress nofree norecurse nosync nounwind willreturn memory(readwrite, argmem: write, inaccessiblemem: none) uwtable
define hidden void @_ZN23java_lang_reflect_Field17set_trusted_finalEP7oopDesc(ptr noundef %0) local_unnamed_addr #6 align 2 {
  %2 = load i32, ptr @_ZN23java_lang_reflect_Field21_trusted_final_offsetE, align 4
  %3 = ptrtoint ptr %0 to i64
  %4 = sext i32 %2 to i64
  %5 = add nsw i64 %4, %3
  %6 = inttoptr i64 %5 to ptr
  store i8 1, ptr %6, align 1
  ret void
}